target datalayout = "e-m:e-p270:32:32-p271:32:32-p272:64:64-i64:64-i128:128-f80:128-n8:16:32:64-S128"
target triple = "x86_64-unknown-linux-gnu"

%"class.absl::lts_20230802::Status" = type { i64 }
%struct.grpc_deadline_state = type { ptr, ptr, ptr, ptr, ptr, %struct.grpc_closure, ptr }
%struct.grpc_closure = type { %union.anon, ptr, ptr, %union.anon.0 }
%union.anon = type { ptr }
%union.anon.0 = type { i64 }
%struct.grpc_transport_stream_op_batch = type { ptr, ptr, i8, %struct.grpc_handler_private_op_data }
%struct.grpc_handler_private_op_data = type { ptr, %struct.grpc_closure }
%struct.grpc_transport_stream_op_batch_payload = type { %struct.anon.80, %struct.anon.81, %struct.anon.82, %struct.anon.83, %struct.anon.84, %struct.anon.85, %struct.anon.86, ptr }
%struct.anon.80 = type { ptr }
%struct.anon.81 = type { ptr, ptr }
%struct.anon.82 = type <{ ptr, i32, i8, [3 x i8] }>
%struct.anon.83 = type { ptr, ptr, ptr }
%struct.anon.84 = type { ptr, ptr, ptr, ptr }
%struct.anon.85 = type { ptr, ptr, ptr }
%struct.anon.86 = type <{ %"class.absl::lts_20230802::Status", i8, [7 x i8] }>
%struct.grpc_call_element = type { ptr, ptr, ptr }
%struct.server_call_data = type { %struct.grpc_deadline_state, %struct.grpc_closure, ptr, ptr }
%"class.grpc_core::TimerState" = type { ptr, %struct.grpc_timer, %struct.grpc_closure }
%struct.grpc_timer = type { i64, i32, i8, ptr, ptr, ptr, %union.anon.66 }
%union.anon.66 = type { %"struct.grpc_event_engine::experimental::EventEngine::TaskHandle" }
%"struct.grpc_event_engine::experimental::EventEngine::TaskHandle" = type { [2 x i64] }

; Function Attrs: mustprogress uwtable
define linkonce_odr void @_ZN9grpc_core10TimerState6CancelEv(ptr noundef nonnull align 8 dereferenceable(96) %this) #4 comdat align 2 {
entry:
  %this.addr = alloca ptr, align 8
  store ptr %this, ptr %this.addr, align 8
  %this1 = load ptr, ptr %this.addr, align 8
  %timer_ = getelementptr inbounds %"class.grpc_core::TimerState", ptr %this1, i32 0, i32 1
  call void @_Z17grpc_timer_cancelP10grpc_timer(ptr noundef %timer_)
  ret void
}

; Function Attrs: mustprogress nounwind uwtable
define internal void @_ZL35inject_recv_trailing_metadata_readyP19grpc_deadline_stateP30grpc_transport_stream_op_batch(ptr noundef %deadline_state, ptr noundef %op) #5 {
entry:
  %deadline_state.addr = alloca ptr, align 8
  %op.addr = alloca ptr, align 8
  store ptr %deadline_state, ptr %deadline_state.addr, align 8
  store ptr %op, ptr %op.addr, align 8
  %0 = load ptr, ptr %op.addr, align 8
  %payload = getelementptr inbounds %struct.grpc_transport_stream_op_batch, ptr %0, i32 0, i32 1
  %1 = load ptr, ptr %payload, align 8
  %recv_trailing_metadata = getelementptr inbounds %struct.grpc_transport_stream_op_batch_payload, ptr %1, i32 0, i32 5
  %recv_trailing_metadata_ready = getelementptr inbounds %struct.anon.85, ptr %recv_trailing_metadata, i32 0, i32 2
  %2 = load ptr, ptr %recv_trailing_metadata_ready, align 8
  %3 = load ptr, ptr %deadline_state.addr, align 8
  %original_recv_trailing_metadata_ready = getelementptr inbounds %struct.grpc_deadline_state, ptr %3, i32 0, i32 6
  store ptr %2, ptr %original_recv_trailing_metadata_ready, align 8
  %4 = load ptr, ptr %deadline_state.addr, align 8
  %recv_trailing_metadata_ready1 = getelementptr inbounds %struct.grpc_deadline_state, ptr %4, i32 0, i32 5
  %5 = load ptr, ptr %deadline_state.addr, align 8
  %call = call noundef ptr @_Z17grpc_closure_initP12grpc_closurePFvPvN4absl12lts_202308026StatusEES1_(ptr noundef %recv_trailing_metadata_ready1, ptr noundef @_ZL28recv_trailing_metadata_readyPvN4absl12lts_202308026StatusE, ptr noundef %5)
  %6 = load ptr, ptr %deadline_state.addr, align 8
  %recv_trailing_metadata_ready2 = getelementptr inbounds %struct.grpc_deadline_state, ptr %6, i32 0, i32 5
  %7 = load ptr, ptr %op.addr, align 8
  %payload3 = getelementptr inbounds %struct.grpc_transport_stream_op_batch, ptr %7, i32 0, i32 1
  %8 = load ptr, ptr %payload3, align 8
  %recv_trailing_metadata4 = getelementptr inbounds %struct.grpc_transport_stream_op_batch_payload, ptr %8, i32 0, i32 5
  %recv_trailing_metadata_ready5 = getelementptr inbounds %struct.anon.85, ptr %recv_trailing_metadata4, i32 0, i32 2
  store ptr %recv_trailing_metadata_ready2, ptr %recv_trailing_metadata_ready5, align 8
  ret void
}

; Function Attrs: mustprogress nounwind uwtable
define linkonce_odr noundef ptr @_Z17grpc_closure_initP12grpc_closurePFvPvN4absl12lts_202308026StatusEES1_(ptr noundef %closure, ptr noundef %cb, ptr noundef %cb_arg) #5 comdat {
entry:
  %closure.addr = alloca ptr, align 8
  %cb.addr = alloca ptr, align 8
  %cb_arg.addr = alloca ptr, align 8
  store ptr %closure, ptr %closure.addr, align 8
  store ptr %cb, ptr %cb.addr, align 8
  store ptr %cb_arg, ptr %cb_arg.addr, align 8
  %0 = load ptr, ptr %cb.addr, align 8
  %1 = load ptr, ptr %closure.addr, align 8
  %cb1 = getelementptr inbounds %struct.grpc_closure, ptr %1, i32 0, i32 1
  store ptr %0, ptr %cb1, align 8
  %2 = load ptr, ptr %cb_arg.addr, align 8
  %3 = load ptr, ptr %closure.addr, align 8
  %cb_arg2 = getelementptr inbounds %struct.grpc_closure, ptr %3, i32 0, i32 2
  store ptr %2, ptr %cb_arg2, align 8
  %4 = load ptr, ptr %closure.addr, align 8
  %error_data = getelementptr inbounds %struct.grpc_closure, ptr %4, i32 0, i32 3
  store i64 0, ptr %error_data, align 8
  %5 = load ptr, ptr %closure.addr, align 8
  ret ptr %5
}

; Function Attrs: mustprogress uwtable
define internal void @_ZL22cancel_timer_if_neededP19grpc_deadline_state(ptr noundef %deadline_state) #4 {
entry:
  %deadline_state.addr = alloca ptr, align 8
  store ptr %deadline_state, ptr %deadline_state.addr, align 8
  %0 = load ptr, ptr %deadline_state.addr, align 8
  %timer_state = getelementptr inbounds %struct.grpc_deadline_state, ptr %0, i32 0, i32 4
  %1 = load ptr, ptr %timer_state, align 8
  %cmp = icmp ne ptr %1, null
  br i1 %cmp, label %if.then, label %if.end

if.then:                                          ; preds = %entry
  %2 = load ptr, ptr %deadline_state.addr, align 8
  %timer_state1 = getelementptr inbounds %struct.grpc_deadline_state, ptr %2, i32 0, i32 4
  %3 = load ptr, ptr %timer_state1, align 8
  call void @_ZN9grpc_core10TimerState6CancelEv(ptr noundef nonnull align 8 dereferenceable(96) %3)
  %4 = load ptr, ptr %deadline_state.addr, align 8
  %timer_state2 = getelementptr inbounds %struct.grpc_deadline_state, ptr %4, i32 0, i32 4
  store ptr null, ptr %timer_state2, align 8
  br label %if.end

if.end:                                           ; preds = %if.then, %entry
  ret void
}

; Function Attrs: mustprogress uwtable
define internal void @_ZL47deadline_server_start_transport_stream_op_batchP17grpc_call_elementP30grpc_transport_stream_op_batch(ptr noundef %elem, ptr noundef %op) #4 {
entry:
  %elem.addr = alloca ptr, align 8
  %op.addr = alloca ptr, align 8
  %calld = alloca ptr, align 8
  store ptr %elem, ptr %elem.addr, align 8
  store ptr %op, ptr %op.addr, align 8
  %0 = load ptr, ptr %elem.addr, align 8
  %call_data = getelementptr inbounds %struct.grpc_call_element, ptr %0, i32 0, i32 2
  %1 = load ptr, ptr %call_data, align 8
  store ptr %1, ptr %calld, align 8
  %2 = load ptr, ptr %op.addr, align 8
  %cancel_stream = getelementptr inbounds %struct.grpc_transport_stream_op_batch, ptr %2, i32 0, i32 2
  %bf.load = load i8, ptr %cancel_stream, align 8
  %bf.lshr = lshr i8 %bf.load, 6
  %bf.clear = and i8 %bf.lshr, 1
  %bf.cast = trunc i8 %bf.clear to i1
  br i1 %bf.cast, label %if.then, label %if.else

if.then:                                          ; preds = %entry
  %3 = load ptr, ptr %calld, align 8
  %deadline_state = getelementptr inbounds %struct.server_call_data, ptr %3, i32 0, i32 0
  call void @_ZL22cancel_timer_if_neededP19grpc_deadline_state(ptr noundef %deadline_state)
  br label %if.end23

if.else:                                          ; preds = %entry
  %4 = load ptr, ptr %op.addr, align 8
  %recv_initial_metadata = getelementptr inbounds %struct.grpc_transport_stream_op_batch, ptr %4, i32 0, i32 2
  %bf.load1 = load i8, ptr %recv_initial_metadata, align 8
  %bf.lshr2 = lshr i8 %bf.load1, 3
  %bf.clear3 = and i8 %bf.lshr2, 1
  %bf.cast4 = trunc i8 %bf.clear3 to i1
  br i1 %bf.cast4, label %if.then5, label %if.end

if.then5:                                         ; preds = %if.else
  %5 = load ptr, ptr %op.addr, align 8
  %payload = getelementptr inbounds %struct.grpc_transport_stream_op_batch, ptr %5, i32 0, i32 1
  %6 = load ptr, ptr %payload, align 8
  %recv_initial_metadata6 = getelementptr inbounds %struct.grpc_transport_stream_op_batch_payload, ptr %6, i32 0, i32 3
  %recv_initial_metadata_ready = getelementptr inbounds %struct.anon.83, ptr %recv_initial_metadata6, i32 0, i32 1
  %7 = load ptr, ptr %recv_initial_metadata_ready, align 8
  %8 = load ptr, ptr %calld, align 8
  %next_recv_initial_metadata_ready = getelementptr inbounds %struct.server_call_data, ptr %8, i32 0, i32 3
  store ptr %7, ptr %next_recv_initial_metadata_ready, align 8
  %9 = load ptr, ptr %op.addr, align 8
  %payload7 = getelementptr inbounds %struct.grpc_transport_stream_op_batch, ptr %9, i32 0, i32 1
  %10 = load ptr, ptr %payload7, align 8
  %recv_initial_metadata8 = getelementptr inbounds %struct.grpc_transport_stream_op_batch_payload, ptr %10, i32 0, i32 3
  %recv_initial_metadata9 = getelementptr inbounds %struct.anon.83, ptr %recv_initial_metadata8, i32 0, i32 0
  %11 = load ptr, ptr %recv_initial_metadata9, align 8
  %12 = load ptr, ptr %calld, align 8
  %recv_initial_metadata10 = getelementptr inbounds %struct.server_call_data, ptr %12, i32 0, i32 2
  store ptr %11, ptr %recv_initial_metadata10, align 8
  %13 = load ptr, ptr %calld, align 8
  %recv_initial_metadata_ready11 = getelementptr inbounds %struct.server_call_data, ptr %13, i32 0, i32 1
  %14 = load ptr, ptr %elem.addr, align 8
  %call = call noundef ptr @_Z17grpc_closure_initP12grpc_closurePFvPvN4absl12lts_202308026StatusEES1_(ptr noundef %recv_initial_metadata_ready11, ptr noundef @_ZL27recv_initial_metadata_readyPvN4absl12lts_202308026StatusE, ptr noundef %14)
  %15 = load ptr, ptr %calld, align 8
  %recv_initial_metadata_ready12 = getelementptr inbounds %struct.server_call_data, ptr %15, i32 0, i32 1
  %16 = load ptr, ptr %op.addr, align 8
  %payload13 = getelementptr inbounds %struct.grpc_transport_stream_op_batch, ptr %16, i32 0, i32 1
  %17 = load ptr, ptr %payload13, align 8
  %recv_initial_metadata14 = getelementptr inbounds %struct.grpc_transport_stream_op_batch_payload, ptr %17, i32 0, i32 3
  %recv_initial_metadata_ready15 = getelementptr inbounds %struct.anon.83, ptr %recv_initial_metadata14, i32 0, i32 1
  store ptr %recv_initial_metadata_ready12, ptr %recv_initial_metadata_ready15, align 8
  br label %if.end

if.end:                                           ; preds = %if.then5, %if.else
  %18 = load ptr, ptr %op.addr, align 8
  %recv_trailing_metadata = getelementptr inbounds %struct.grpc_transport_stream_op_batch, ptr %18, i32 0, i32 2
  %bf.load16 = load i8, ptr %recv_trailing_metadata, align 8
  %bf.lshr17 = lshr i8 %bf.load16, 5
  %bf.clear18 = and i8 %bf.lshr17, 1
  %bf.cast19 = trunc i8 %bf.clear18 to i1
  br i1 %bf.cast19, label %if.then20, label %if.end22

if.then20:                                        ; preds = %if.end
  %19 = load ptr, ptr %calld, align 8
  %deadline_state21 = getelementptr inbounds %struct.server_call_data, ptr %19, i32 0, i32 0
  %20 = load ptr, ptr %op.addr, align 8
  call void @_ZL35inject_recv_trailing_metadata_readyP19grpc_deadline_stateP30grpc_transport_stream_op_batch(ptr noundef %deadline_state21, ptr noundef %20)
  br label %if.end22

if.end22:                                         ; preds = %if.then20, %if.end
  br label %if.end23

if.end23:                                         ; preds = %if.end22, %if.then
  %21 = load ptr, ptr %elem.addr, align 8
  %22 = load ptr, ptr %op.addr, align 8
  call void @_Z17grpc_call_next_opP17grpc_call_elementP30grpc_transport_stream_op_batch(ptr noundef %21, ptr noundef %22)
  ret void
}