; Function Attrs: mustprogress uwtable
define internal void @_ZL47deadline_server_start_transport_stream_op_batchP17grpc_call_elementP30grpc_transport_stream_op_batch(ptr noundef %elem, ptr noundef %op) #3 {
entry:
  %call_data = getelementptr inbounds i8, ptr %elem, i64 16
  %0 = load ptr, ptr %call_data, align 8
  %cancel_stream = getelementptr inbounds i8, ptr %op, i64 16
  %bf.load = load i8, ptr %cancel_stream, align 8
  %1 = and i8 %bf.load, 64
  %bf.cast.not = icmp eq i8 %1, 0
  br i1 %bf.cast.not, label %if.else, label %if.then

if.then:                                          ; preds = %entry
  %timer_state.i = getelementptr inbounds i8, ptr %0, i64 32
  %2 = load ptr, ptr %timer_state.i, align 8
  %cmp.not.i = icmp eq ptr %2, null
  br i1 %cmp.not.i, label %if.end23, label %if.then.i

if.then.i:                                        ; preds = %if.then
  %timer_.i.i = getelementptr inbounds i8, ptr %2, i64 8
  tail call void @_Z17grpc_timer_cancelP10grpc_timer(ptr noundef nonnull %timer_.i.i)
  store ptr null, ptr %timer_state.i, align 8
  br label %if.end23

if.else:                                          ; preds = %entry
  %3 = and i8 %bf.load, 8
  %bf.cast4.not = icmp eq i8 %3, 0
  br i1 %bf.cast4.not, label %if.end, label %if.then5

if.then5:                                         ; preds = %if.else
  %payload = getelementptr inbounds i8, ptr %op, i64 8
  %4 = load ptr, ptr %payload, align 8
  %recv_initial_metadata_ready = getelementptr inbounds i8, ptr %4, i64 48
  %5 = load ptr, ptr %recv_initial_metadata_ready, align 8
  %next_recv_initial_metadata_ready = getelementptr inbounds i8, ptr %0, i64 120
  store ptr %5, ptr %next_recv_initial_metadata_ready, align 8
  %6 = load ptr, ptr %payload, align 8
  %recv_initial_metadata8 = getelementptr inbounds i8, ptr %6, i64 40
  %7 = load ptr, ptr %recv_initial_metadata8, align 8
  %recv_initial_metadata10 = getelementptr inbounds i8, ptr %0, i64 112
  store ptr %7, ptr %recv_initial_metadata10, align 8
  %recv_initial_metadata_ready11 = getelementptr inbounds i8, ptr %0, i64 80
  %cb1.i = getelementptr inbounds i8, ptr %0, i64 88
  store ptr @_ZL27recv_initial_metadata_readyPvN4absl12lts_202308026StatusE, ptr %cb1.i, align 8
  %cb_arg2.i = getelementptr inbounds i8, ptr %0, i64 96
  store ptr %elem, ptr %cb_arg2.i, align 8
  %error_data.i = getelementptr inbounds i8, ptr %0, i64 104
  store i64 0, ptr %error_data.i, align 8
  %8 = load ptr, ptr %payload, align 8
  %recv_initial_metadata_ready15 = getelementptr inbounds i8, ptr %8, i64 48
  store ptr %recv_initial_metadata_ready11, ptr %recv_initial_metadata_ready15, align 8
  %bf.load16.pre = load i8, ptr %cancel_stream, align 8
  br label %if.end

if.end:                                           ; preds = %if.then5, %if.else
  %bf.load16 = phi i8 [ %bf.load16.pre, %if.then5 ], [ %bf.load, %if.else ]
  %9 = and i8 %bf.load16, 32
  %bf.cast19.not = icmp eq i8 %9, 0
  br i1 %bf.cast19.not, label %if.end23, label %if.then20

if.then20:                                        ; preds = %if.end
  %payload.i = getelementptr inbounds i8, ptr %op, i64 8
  %10 = load ptr, ptr %payload.i, align 8
  %recv_trailing_metadata_ready.i = getelementptr inbounds i8, ptr %10, i64 112
  %11 = load ptr, ptr %recv_trailing_metadata_ready.i, align 8
  %original_recv_trailing_metadata_ready.i = getelementptr inbounds i8, ptr %0, i64 72
  store ptr %11, ptr %original_recv_trailing_metadata_ready.i, align 8
  %recv_trailing_metadata_ready1.i = getelementptr inbounds i8, ptr %0, i64 40
  %cb1.i.i = getelementptr inbounds i8, ptr %0, i64 48
  store ptr @_ZL28recv_trailing_metadata_readyPvN4absl12lts_202308026StatusE, ptr %cb1.i.i, align 8
  %cb_arg2.i.i = getelementptr inbounds i8, ptr %0, i64 56
  store ptr %0, ptr %cb_arg2.i.i, align 8
  %error_data.i.i = getelementptr inbounds i8, ptr %0, i64 64
  store i64 0, ptr %error_data.i.i, align 8
  %12 = load ptr, ptr %payload.i, align 8
  %recv_trailing_metadata_ready5.i = getelementptr inbounds i8, ptr %12, i64 112
  store ptr %recv_trailing_metadata_ready1.i, ptr %recv_trailing_metadata_ready5.i, align 8
  br label %if.end23

if.end23:                                         ; preds = %if.then.i, %if.then, %if.end, %if.then20
  tail call void @_Z17grpc_call_next_opP17grpc_call_elementP30grpc_transport_stream_op_batch(ptr noundef nonnull %elem, ptr noundef nonnull %op)
  ret void
}